target datalayout = "e-m:e-p270:32:32-p271:32:32-p272:64:64-i64:64-i128:128-f80:128-n8:16:32:64-S128"
target triple = "x86_64-pc-linux-gnu"

%struct.nstime_t = type { i64, i32 }
%struct._capture_file = type { ptr, i32, ptr, ptr, i8, i8, i8, i64, i16, i32, i32, i32, ptr, i32, i64, i32, i32, i32, i32, i8, i32, %struct.nstime_t, i32, ptr, ptr, ptr, i8, i8, i32, ptr, i8, i8, i8, i8, i8, i32, i32, i8, ptr, i32, i32, i8, %struct.packet_provider_data, i32, i32, %struct.epan_column_info, ptr, ptr, ptr, %struct.wtap_rec, %struct.Buffer, ptr, i64, i32 }
%struct.packet_provider_data = type { ptr, ptr, ptr, ptr, ptr, ptr }
%struct.epan_column_info = type { ptr, i32, ptr, ptr, ptr, %struct.col_expr_t, i8, ptr }
%struct.col_expr_t = type { ptr, ptr }
%struct.wtap_rec = type { i32, i32, i32, %struct.nstime_t, i32, %struct.nstime_t, i8, %union.anon, ptr, i8, %struct.Buffer, %struct.Buffer }
%union.anon = type { %struct.wtap_packet_header }
%struct.wtap_packet_header = type { i32, i32, i32, i32, %union.wtap_pseudo_header }
%union.wtap_pseudo_header = type { %struct.erf_mc_phdr }
%struct.erf_mc_phdr = type { %struct.erf_phdr, [16 x %struct.erf_ehdr], %union.anon.1 }
%struct.erf_phdr = type { i64, i8, i8, i16, i16, i16 }
%struct.erf_ehdr = type { i64 }
%union.anon.1 = type { i32 }
%struct.Buffer = type { ptr, i64, i64, i64 }
%struct._frame_data = type <{ i32, i32, i32, i32, i32, [4 x i8], i64, ptr, ptr, ptr, i8, i16, [5 x i8], %struct.nstime_t, %struct.nstime_t, i32, i32 }>

@.str.15 = private unnamed_addr constant [22 x i8] c"Nothing to work with.\00", align 1
@.str.17 = private unnamed_addr constant [17 x i8] c"No frames found.\00", align 1
@stderr = external global ptr, align 8
@.str.20 = private unnamed_addr constant [32 x i8] c"Modify_time_perform: neg = %d?\0A\00", align 1

; Function Attrs: null_pointer_is_valid sspstrong uwtable
define internal void @modify_time_perform(ptr noundef %0, i32 noundef %1, ptr noundef %2, i32 noundef %3) #3 {
  %5 = alloca ptr, align 8
  %6 = alloca i32, align 4
  %7 = alloca ptr, align 8
  %8 = alloca i32, align 4
  store ptr %0, ptr %5, align 8
  store i32 %1, ptr %6, align 4
  store ptr %2, ptr %7, align 8
  store i32 %3, ptr %8, align 4
  %9 = load i32, ptr %8, align 4
  %10 = icmp eq i32 %9, 1
  br i1 %10, label %11, label %20

11:                                               ; preds = %4
  %12 = load ptr, ptr %5, align 8
  %13 = getelementptr inbounds nuw %struct._frame_data, ptr %12, i32 0, i32 13
  %14 = load ptr, ptr %5, align 8
  %15 = getelementptr inbounds nuw %struct._frame_data, ptr %14, i32 0, i32 13
  %16 = load ptr, ptr %5, align 8
  %17 = getelementptr inbounds nuw %struct._frame_data, ptr %16, i32 0, i32 14
  call void @nstime_delta(ptr noundef %13, ptr noundef %15, ptr noundef %17)
  %18 = load ptr, ptr %5, align 8
  %19 = getelementptr inbounds nuw %struct._frame_data, ptr %18, i32 0, i32 14
  call void @nstime_set_zero(ptr noundef %19)
  br label %20

20:                                               ; preds = %11, %4
  %21 = load i32, ptr %6, align 4
  %22 = icmp eq i32 %21, 0
  br i1 %22, label %23, label %34

23:                                               ; preds = %20
  %24 = load ptr, ptr %5, align 8
  %25 = getelementptr inbounds nuw %struct._frame_data, ptr %24, i32 0, i32 13
  %26 = load ptr, ptr %5, align 8
  %27 = getelementptr inbounds nuw %struct._frame_data, ptr %26, i32 0, i32 13
  %28 = load ptr, ptr %7, align 8
  call void @nstime_sum(ptr noundef %25, ptr noundef %27, ptr noundef %28)
  %29 = load ptr, ptr %5, align 8
  %30 = getelementptr inbounds nuw %struct._frame_data, ptr %29, i32 0, i32 14
  %31 = load ptr, ptr %5, align 8
  %32 = getelementptr inbounds nuw %struct._frame_data, ptr %31, i32 0, i32 14
  %33 = load ptr, ptr %7, align 8
  call void @nstime_sum(ptr noundef %30, ptr noundef %32, ptr noundef %33)
  br label %53

34:                                               ; preds = %20
  %35 = load i32, ptr %6, align 4
  %36 = icmp eq i32 %35, 1
  br i1 %36, label %37, label %48

37:                                               ; preds = %34
  %38 = load ptr, ptr %5, align 8
  %39 = getelementptr inbounds nuw %struct._frame_data, ptr %38, i32 0, i32 13
  %40 = load ptr, ptr %5, align 8
  %41 = getelementptr inbounds nuw %struct._frame_data, ptr %40, i32 0, i32 13
  %42 = load ptr, ptr %7, align 8
  call void @nstime_delta(ptr noundef %39, ptr noundef %41, ptr noundef %42)
  %43 = load ptr, ptr %5, align 8
  %44 = getelementptr inbounds nuw %struct._frame_data, ptr %43, i32 0, i32 14
  %45 = load ptr, ptr %5, align 8
  %46 = getelementptr inbounds nuw %struct._frame_data, ptr %45, i32 0, i32 14
  %47 = load ptr, ptr %7, align 8
  call void @nstime_delta(ptr noundef %44, ptr noundef %46, ptr noundef %47)
  br label %52

48:                                               ; preds = %34
  %49 = load ptr, ptr @stderr, align 8
  %50 = load i32, ptr %6, align 4
  %51 = call i32 (ptr, i32, ptr, ...) @__fprintf_chk(ptr noundef %49, i32 noundef 2, ptr noundef @.str.20, i32 noundef %50)
  br label %52

52:                                               ; preds = %48, %37
  br label %53

53:                                               ; preds = %52, %23
  ret void
}

; Function Attrs: null_pointer_is_valid sspstrong uwtable
define hidden ptr @time_shift_undo(ptr noundef %0) #3 {
  %2 = alloca ptr, align 8
  %3 = alloca ptr, align 8
  %4 = alloca i32, align 4
  %5 = alloca ptr, align 8
  %6 = alloca %struct.nstime_t, align 8
  %7 = alloca i32, align 4
  store ptr %0, ptr %3, align 8
  call void @llvm.lifetime.start.p0(i64 4, ptr %4) #8
  call void @llvm.lifetime.start.p0(i64 8, ptr %5) #8
  call void @llvm.lifetime.start.p0(i64 16, ptr %6) #8
  %8 = load ptr, ptr %3, align 8
  %9 = icmp ne ptr %8, null
  br i1 %9, label %11, label %10

10:                                               ; preds = %1
  store ptr @.str.15, ptr %2, align 8
  store i32 1, ptr %7, align 4
  br label %43

11:                                               ; preds = %1
  %12 = getelementptr inbounds nuw %struct.nstime_t, ptr %6, i32 0, i32 1
  store i32 0, ptr %12, align 8
  %13 = getelementptr inbounds nuw %struct.nstime_t, ptr %6, i32 0, i32 0
  store i64 0, ptr %13, align 8
  %14 = load ptr, ptr %3, align 8
  %15 = getelementptr inbounds nuw %struct._capture_file, ptr %14, i32 0, i32 42
  %16 = getelementptr inbounds nuw %struct.packet_provider_data, ptr %15, i32 0, i32 4
  %17 = load ptr, ptr %16, align 8
  %18 = call ptr @frame_data_sequence_find(ptr noundef %17, i32 noundef 1)
  %19 = icmp ne ptr %18, null
  br i1 %19, label %21, label %20

20:                                               ; preds = %11
  store ptr @.str.17, ptr %2, align 8
  store i32 1, ptr %7, align 4
  br label %43

21:                                               ; preds = %11
  store i32 1, ptr %4, align 4
  br label %22

22:                                               ; preds = %39, %21
  %23 = load i32, ptr %4, align 4
  %24 = load ptr, ptr %3, align 8
  %25 = getelementptr inbounds nuw %struct._capture_file, ptr %24, i32 0, i32 13
  %26 = load i32, ptr %25, align 8
  %27 = icmp ule i32 %23, %26
  br i1 %27, label %28, label %42

28:                                               ; preds = %22
  %29 = load ptr, ptr %3, align 8
  %30 = getelementptr inbounds nuw %struct._capture_file, ptr %29, i32 0, i32 42
  %31 = getelementptr inbounds nuw %struct.packet_provider_data, ptr %30, i32 0, i32 4
  %32 = load ptr, ptr %31, align 8
  %33 = load i32, ptr %4, align 4
  %34 = call ptr @frame_data_sequence_find(ptr noundef %32, i32 noundef %33)
  store ptr %34, ptr %5, align 8
  %35 = icmp eq ptr %34, null
  br i1 %35, label %36, label %37

36:                                               ; preds = %28
  br label %39

37:                                               ; preds = %28
  %38 = load ptr, ptr %5, align 8
  call void @modify_time_perform(ptr noundef %38, i32 noundef 1, ptr noundef %6, i32 noundef 1)
  br label %39

39:                                               ; preds = %37, %36
  %40 = load i32, ptr %4, align 4
  %41 = add i32 %40, 1
  store i32 %41, ptr %4, align 4
  br label %22, !llvm.loop !15

42:                                               ; preds = %22
  call void @packet_list_queue_draw()
  store ptr null, ptr %2, align 8
  store i32 1, ptr %7, align 4
  br label %43

43:                                               ; preds = %42, %20, %10
  call void @llvm.lifetime.end.p0(i64 16, ptr %6) #8
  call void @llvm.lifetime.end.p0(i64 8, ptr %5) #8
  call void @llvm.lifetime.end.p0(i64 4, ptr %4) #8
  %44 = load ptr, ptr %2, align 8
  ret ptr %44
}