; Function Attrs: null_pointer_is_valid sspstrong uwtable
define hidden noundef ptr @time_shift_undo(ptr noundef readonly captures(address_is_null) %0) local_unnamed_addr #3 {
  %2 = alloca %struct.nstime_t, align 8
  call void @llvm.lifetime.start.p0(i64 16, ptr nonnull %2) #11
  %.not = icmp eq ptr %0, null
  br i1 %.not, label %19, label %3

3:                                                ; preds = %1
  %4 = getelementptr inbounds nuw i8, ptr %2, i64 8
  store i32 0, ptr %4, align 8
  store i64 0, ptr %2, align 8
  %5 = getelementptr inbounds nuw i8, ptr %0, i64 256
  %6 = load ptr, ptr %5, align 8
  %7 = tail call ptr @frame_data_sequence_find(ptr noundef %6, i32 noundef 1)
  %.not11 = icmp eq ptr %7, null
  br i1 %.not11, label %19, label %.preheader

.preheader:                                       ; preds = %3
  %8 = getelementptr inbounds nuw i8, ptr %0, i64 72
  %9 = load i32, ptr %8, align 8
  %.not1213 = icmp eq i32 %9, 0
  br i1 %.not1213, label %._crit_edge, label %.lr.ph

.lr.ph:                                           ; preds = %.preheader, %16
  %.0814 = phi i32 [ %17, %16 ], [ 1, %.preheader ]
  %10 = load ptr, ptr %5, align 8
  %11 = call ptr @frame_data_sequence_find(ptr noundef %10, i32 noundef %.0814)
  %12 = icmp eq ptr %11, null
  br i1 %12, label %16, label %13

13:                                               ; preds = %.lr.ph
  %14 = getelementptr inbounds nuw i8, ptr %11, i64 64
  %15 = getelementptr inbounds nuw i8, ptr %11, i64 80
  call void @nstime_delta(ptr noundef nonnull %14, ptr noundef nonnull %14, ptr noundef nonnull %15)
  call void @nstime_set_zero(ptr noundef nonnull %15)
  call void @nstime_delta(ptr noundef nonnull %14, ptr noundef nonnull %14, ptr noundef nonnull %2)
  call void @nstime_delta(ptr noundef nonnull %15, ptr noundef nonnull %15, ptr noundef nonnull %2)
  br label %16

16:                                               ; preds = %.lr.ph, %13
  %17 = add i32 %.0814, 1
  %18 = load i32, ptr %8, align 8
  %.not12 = icmp ugt i32 %17, %18
  br i1 %.not12, label %._crit_edge, label %.lr.ph, !llvm.loop !15

._crit_edge:                                      ; preds = %16, %.preheader
  call void @packet_list_queue_draw()
  br label %19

19:                                               ; preds = %3, %1, %._crit_edge
  %.0 = phi ptr [ null, %._crit_edge ], [ @.str.15, %1 ], [ @.str.17, %3 ]
  call void @llvm.lifetime.end.p0(i64 16, ptr nonnull %2) #11
  ret ptr %.0
}